target datalayout = "e-m:e-p270:32:32-p271:32:32-p272:64:64-i64:64-i128:128-f80:128-n8:16:32:64-S128"
target triple = "x86_64-pc-linux-gnu"

%struct.code = type { i8, i8, i16 }
%struct.z_stream_s = type { ptr, i32, i64, ptr, i32, i64, ptr, ptr, ptr, ptr, ptr, i32, i64, i64 }
%struct.inflate_state = type { ptr, i32, i32, i32, i32, i32, i32, i64, i64, ptr, i32, i32, i32, i32, ptr, i64, i32, i32, i32, i32, ptr, ptr, i32, i32, i32, i32, i32, i32, ptr, [320 x i16], [288 x i16], [1444 x %struct.code], i32, i32, i32 }

; Function Attrs: nounwind uwtable
define internal i32 @updatewindow(ptr noundef %0, ptr noundef %1, i32 noundef %2) #0 {
  %4 = alloca i32, align 4
  %5 = alloca ptr, align 8
  %6 = alloca ptr, align 8
  %7 = alloca i32, align 4
  %8 = alloca ptr, align 8
  %9 = alloca i32, align 4
  store ptr %0, ptr %5, align 8
  store ptr %1, ptr %6, align 8
  store i32 %2, ptr %7, align 4
  %10 = load ptr, ptr %5, align 8
  %11 = getelementptr inbounds %struct.z_stream_s, ptr %10, i32 0, i32 7
  %12 = load ptr, ptr %11, align 8
  store ptr %12, ptr %8, align 8
  %13 = load ptr, ptr %8, align 8
  %14 = getelementptr inbounds %struct.inflate_state, ptr %13, i32 0, i32 14
  %15 = load ptr, ptr %14, align 8
  %16 = icmp eq ptr %15, null
  br i1 %16, label %17, label %37

17:                                               ; preds = %3
  %18 = load ptr, ptr %5, align 8
  %19 = getelementptr inbounds %struct.z_stream_s, ptr %18, i32 0, i32 8
  %20 = load ptr, ptr %19, align 8
  %21 = load ptr, ptr %5, align 8
  %22 = getelementptr inbounds %struct.z_stream_s, ptr %21, i32 0, i32 10
  %23 = load ptr, ptr %22, align 8
  %24 = load ptr, ptr %8, align 8
  %25 = getelementptr inbounds %struct.inflate_state, ptr %24, i32 0, i32 10
  %26 = load i32, ptr %25, align 8
  %27 = shl i32 1, %26
  %28 = call ptr %20(ptr noundef %23, i32 noundef %27, i32 noundef 1)
  %29 = load ptr, ptr %8, align 8
  %30 = getelementptr inbounds %struct.inflate_state, ptr %29, i32 0, i32 14
  store ptr %28, ptr %30, align 8
  %31 = load ptr, ptr %8, align 8
  %32 = getelementptr inbounds %struct.inflate_state, ptr %31, i32 0, i32 14
  %33 = load ptr, ptr %32, align 8
  %34 = icmp eq ptr %33, null
  br i1 %34, label %35, label %36

35:                                               ; preds = %17
  store i32 1, ptr %4, align 4
  br label %167

36:                                               ; preds = %17
  br label %37

37:                                               ; preds = %36, %3
  %38 = load ptr, ptr %8, align 8
  %39 = getelementptr inbounds %struct.inflate_state, ptr %38, i32 0, i32 11
  %40 = load i32, ptr %39, align 4
  %41 = icmp eq i32 %40, 0
  br i1 %41, label %42, label %53

42:                                               ; preds = %37
  %43 = load ptr, ptr %8, align 8
  %44 = getelementptr inbounds %struct.inflate_state, ptr %43, i32 0, i32 10
  %45 = load i32, ptr %44, align 8
  %46 = shl i32 1, %45
  %47 = load ptr, ptr %8, align 8
  %48 = getelementptr inbounds %struct.inflate_state, ptr %47, i32 0, i32 11
  store i32 %46, ptr %48, align 4
  %49 = load ptr, ptr %8, align 8
  %50 = getelementptr inbounds %struct.inflate_state, ptr %49, i32 0, i32 13
  store i32 0, ptr %50, align 4
  %51 = load ptr, ptr %8, align 8
  %52 = getelementptr inbounds %struct.inflate_state, ptr %51, i32 0, i32 12
  store i32 0, ptr %52, align 8
  br label %53

53:                                               ; preds = %42, %37
  %54 = load i32, ptr %7, align 4
  %55 = load ptr, ptr %8, align 8
  %56 = getelementptr inbounds %struct.inflate_state, ptr %55, i32 0, i32 11
  %57 = load i32, ptr %56, align 4
  %58 = icmp uge i32 %54, %57
  br i1 %58, label %59, label %81

59:                                               ; preds = %53
  %60 = load ptr, ptr %8, align 8
  %61 = getelementptr inbounds %struct.inflate_state, ptr %60, i32 0, i32 14
  %62 = load ptr, ptr %61, align 8
  %63 = load ptr, ptr %6, align 8
  %64 = load ptr, ptr %8, align 8
  %65 = getelementptr inbounds %struct.inflate_state, ptr %64, i32 0, i32 11
  %66 = load i32, ptr %65, align 4
  %67 = zext i32 %66 to i64
  %68 = sub i64 0, %67
  %69 = getelementptr inbounds i8, ptr %63, i64 %68
  %70 = load ptr, ptr %8, align 8
  %71 = getelementptr inbounds %struct.inflate_state, ptr %70, i32 0, i32 11
  %72 = load i32, ptr %71, align 4
  %73 = zext i32 %72 to i64
  call void @llvm.memcpy.p0.p0.i64(ptr align 1 %62, ptr align 1 %69, i64 %73, i1 false)
  %74 = load ptr, ptr %8, align 8
  %75 = getelementptr inbounds %struct.inflate_state, ptr %74, i32 0, i32 13
  store i32 0, ptr %75, align 4
  %76 = load ptr, ptr %8, align 8
  %77 = getelementptr inbounds %struct.inflate_state, ptr %76, i32 0, i32 11
  %78 = load i32, ptr %77, align 4
  %79 = load ptr, ptr %8, align 8
  %80 = getelementptr inbounds %struct.inflate_state, ptr %79, i32 0, i32 12
  store i32 %78, ptr %80, align 8
  br label %166

81:                                               ; preds = %53
  %82 = load ptr, ptr %8, align 8
  %83 = getelementptr inbounds %struct.inflate_state, ptr %82, i32 0, i32 11
  %84 = load i32, ptr %83, align 4
  %85 = load ptr, ptr %8, align 8
  %86 = getelementptr inbounds %struct.inflate_state, ptr %85, i32 0, i32 13
  %87 = load i32, ptr %86, align 4
  %88 = sub i32 %84, %87
  store i32 %88, ptr %9, align 4
  %89 = load i32, ptr %9, align 4
  %90 = load i32, ptr %7, align 4
  %91 = icmp ugt i32 %89, %90
  br i1 %91, label %92, label %94

92:                                               ; preds = %81
  %93 = load i32, ptr %7, align 4
  store i32 %93, ptr %9, align 4
  br label %94

94:                                               ; preds = %92, %81
  %95 = load ptr, ptr %8, align 8
  %96 = getelementptr inbounds %struct.inflate_state, ptr %95, i32 0, i32 14
  %97 = load ptr, ptr %96, align 8
  %98 = load ptr, ptr %8, align 8
  %99 = getelementptr inbounds %struct.inflate_state, ptr %98, i32 0, i32 13
  %100 = load i32, ptr %99, align 4
  %101 = zext i32 %100 to i64
  %102 = getelementptr inbounds i8, ptr %97, i64 %101
  %103 = load ptr, ptr %6, align 8
  %104 = load i32, ptr %7, align 4
  %105 = zext i32 %104 to i64
  %106 = sub i64 0, %105
  %107 = getelementptr inbounds i8, ptr %103, i64 %106
  %108 = load i32, ptr %9, align 4
  %109 = zext i32 %108 to i64
  call void @llvm.memcpy.p0.p0.i64(ptr align 1 %102, ptr align 1 %107, i64 %109, i1 false)
  %110 = load i32, ptr %9, align 4
  %111 = load i32, ptr %7, align 4
  %112 = sub i32 %111, %110
  store i32 %112, ptr %7, align 4
  %113 = load i32, ptr %7, align 4
  %114 = icmp ne i32 %113, 0
  br i1 %114, label %115, label %134

115:                                              ; preds = %94
  %116 = load ptr, ptr %8, align 8
  %117 = getelementptr inbounds %struct.inflate_state, ptr %116, i32 0, i32 14
  %118 = load ptr, ptr %117, align 8
  %119 = load ptr, ptr %6, align 8
  %120 = load i32, ptr %7, align 4
  %121 = zext i32 %120 to i64
  %122 = sub i64 0, %121
  %123 = getelementptr inbounds i8, ptr %119, i64 %122
  %124 = load i32, ptr %7, align 4
  %125 = zext i32 %124 to i64
  call void @llvm.memcpy.p0.p0.i64(ptr align 1 %118, ptr align 1 %123, i64 %125, i1 false)
  %126 = load i32, ptr %7, align 4
  %127 = load ptr, ptr %8, align 8
  %128 = getelementptr inbounds %struct.inflate_state, ptr %127, i32 0, i32 13
  store i32 %126, ptr %128, align 4
  %129 = load ptr, ptr %8, align 8
  %130 = getelementptr inbounds %struct.inflate_state, ptr %129, i32 0, i32 11
  %131 = load i32, ptr %130, align 4
  %132 = load ptr, ptr %8, align 8
  %133 = getelementptr inbounds %struct.inflate_state, ptr %132, i32 0, i32 12
  store i32 %131, ptr %133, align 8
  br label %165

134:                                              ; preds = %94
  %135 = load i32, ptr %9, align 4
  %136 = load ptr, ptr %8, align 8
  %137 = getelementptr inbounds %struct.inflate_state, ptr %136, i32 0, i32 13
  %138 = load i32, ptr %137, align 4
  %139 = add i32 %138, %135
  store i32 %139, ptr %137, align 4
  %140 = load ptr, ptr %8, align 8
  %141 = getelementptr inbounds %struct.inflate_state, ptr %140, i32 0, i32 13
  %142 = load i32, ptr %141, align 4
  %143 = load ptr, ptr %8, align 8
  %144 = getelementptr inbounds %struct.inflate_state, ptr %143, i32 0, i32 11
  %145 = load i32, ptr %144, align 4
  %146 = icmp eq i32 %142, %145
  br i1 %146, label %147, label %150

147:                                              ; preds = %134
  %148 = load ptr, ptr %8, align 8
  %149 = getelementptr inbounds %struct.inflate_state, ptr %148, i32 0, i32 13
  store i32 0, ptr %149, align 4
  br label %150

150:                                              ; preds = %147, %134
  %151 = load ptr, ptr %8, align 8
  %152 = getelementptr inbounds %struct.inflate_state, ptr %151, i32 0, i32 12
  %153 = load i32, ptr %152, align 8
  %154 = load ptr, ptr %8, align 8
  %155 = getelementptr inbounds %struct.inflate_state, ptr %154, i32 0, i32 11
  %156 = load i32, ptr %155, align 4
  %157 = icmp ult i32 %153, %156
  br i1 %157, label %158, label %164

158:                                              ; preds = %150
  %159 = load i32, ptr %9, align 4
  %160 = load ptr, ptr %8, align 8
  %161 = getelementptr inbounds %struct.inflate_state, ptr %160, i32 0, i32 12
  %162 = load i32, ptr %161, align 8
  %163 = add i32 %162, %159
  store i32 %163, ptr %161, align 8
  br label %164

164:                                              ; preds = %158, %150
  br label %165

165:                                              ; preds = %164, %115
  br label %166

166:                                              ; preds = %165, %59
  store i32 0, ptr %4, align 4
  br label %167

167:                                              ; preds = %166, %35
  %168 = load i32, ptr %4, align 4
  ret i32 %168
}

; Function Attrs: nounwind uwtable
define internal i32 @inflateStateCheck(ptr noundef %0) #0 {
  %2 = alloca i32, align 4
  %3 = alloca ptr, align 8
  %4 = alloca ptr, align 8
  store ptr %0, ptr %3, align 8
  %5 = load ptr, ptr %3, align 8
  %6 = icmp eq ptr %5, null
  br i1 %6, label %17, label %7

7:                                                ; preds = %1
  %8 = load ptr, ptr %3, align 8
  %9 = getelementptr inbounds %struct.z_stream_s, ptr %8, i32 0, i32 8
  %10 = load ptr, ptr %9, align 8
  %11 = icmp eq ptr %10, null
  br i1 %11, label %17, label %12

12:                                               ; preds = %7
  %13 = load ptr, ptr %3, align 8
  %14 = getelementptr inbounds %struct.z_stream_s, ptr %13, i32 0, i32 9
  %15 = load ptr, ptr %14, align 8
  %16 = icmp eq ptr %15, null
  br i1 %16, label %17, label %18

17:                                               ; preds = %12, %7, %1
  store i32 1, ptr %2, align 4
  br label %42

18:                                               ; preds = %12
  %19 = load ptr, ptr %3, align 8
  %20 = getelementptr inbounds %struct.z_stream_s, ptr %19, i32 0, i32 7
  %21 = load ptr, ptr %20, align 8
  store ptr %21, ptr %4, align 8
  %22 = load ptr, ptr %4, align 8
  %23 = icmp eq ptr %22, null
  br i1 %23, label %40, label %24

24:                                               ; preds = %18
  %25 = load ptr, ptr %4, align 8
  %26 = getelementptr inbounds %struct.inflate_state, ptr %25, i32 0, i32 0
  %27 = load ptr, ptr %26, align 8
  %28 = load ptr, ptr %3, align 8
  %29 = icmp ne ptr %27, %28
  br i1 %29, label %40, label %30

30:                                               ; preds = %24
  %31 = load ptr, ptr %4, align 8
  %32 = getelementptr inbounds %struct.inflate_state, ptr %31, i32 0, i32 1
  %33 = load i32, ptr %32, align 8
  %34 = icmp ult i32 %33, 16180
  br i1 %34, label %40, label %35

35:                                               ; preds = %30
  %36 = load ptr, ptr %4, align 8
  %37 = getelementptr inbounds %struct.inflate_state, ptr %36, i32 0, i32 1
  %38 = load i32, ptr %37, align 8
  %39 = icmp ugt i32 %38, 16211
  br i1 %39, label %40, label %41

40:                                               ; preds = %35, %30, %24, %18
  store i32 1, ptr %2, align 4
  br label %42

41:                                               ; preds = %35
  store i32 0, ptr %2, align 4
  br label %42

42:                                               ; preds = %41, %40, %17
  %43 = load i32, ptr %2, align 4
  ret i32 %43
}

; Function Attrs: nounwind uwtable
define dso_local i32 @cm_zlib_inflateSetDictionary(ptr noundef %0, ptr noundef %1, i32 noundef %2) #0 {
  %4 = alloca i32, align 4
  %5 = alloca ptr, align 8
  %6 = alloca ptr, align 8
  %7 = alloca i32, align 4
  %8 = alloca ptr, align 8
  %9 = alloca i64, align 8
  %10 = alloca i32, align 4
  store ptr %0, ptr %5, align 8
  store ptr %1, ptr %6, align 8
  store i32 %2, ptr %7, align 4
  %11 = load ptr, ptr %5, align 8
  %12 = call i32 @inflateStateCheck(ptr noundef %11)
  %13 = icmp ne i32 %12, 0
  br i1 %13, label %14, label %15

14:                                               ; preds = %3
  store i32 -2, ptr %4, align 4
  br label %63

15:                                               ; preds = %3
  %16 = load ptr, ptr %5, align 8
  %17 = getelementptr inbounds %struct.z_stream_s, ptr %16, i32 0, i32 7
  %18 = load ptr, ptr %17, align 8
  store ptr %18, ptr %8, align 8
  %19 = load ptr, ptr %8, align 8
  %20 = getelementptr inbounds %struct.inflate_state, ptr %19, i32 0, i32 3
  %21 = load i32, ptr %20, align 8
  %22 = icmp ne i32 %21, 0
  br i1 %22, label %23, label %29

23:                                               ; preds = %15
  %24 = load ptr, ptr %8, align 8
  %25 = getelementptr inbounds %struct.inflate_state, ptr %24, i32 0, i32 1
  %26 = load i32, ptr %25, align 8
  %27 = icmp ne i32 %26, 16190
  br i1 %27, label %28, label %29

28:                                               ; preds = %23
  store i32 -2, ptr %4, align 4
  br label %63

29:                                               ; preds = %23, %15
  %30 = load ptr, ptr %8, align 8
  %31 = getelementptr inbounds %struct.inflate_state, ptr %30, i32 0, i32 1
  %32 = load i32, ptr %31, align 8
  %33 = icmp eq i32 %32, 16190
  br i1 %33, label %34, label %47

34:                                               ; preds = %29
  %35 = call i64 @cm_zlib_adler32(i64 noundef 0, ptr noundef null, i32 noundef 0)
  store i64 %35, ptr %9, align 8
  %36 = load i64, ptr %9, align 8
  %37 = load ptr, ptr %6, align 8
  %38 = load i32, ptr %7, align 4
  %39 = call i64 @cm_zlib_adler32(i64 noundef %36, ptr noundef %37, i32 noundef %38)
  store i64 %39, ptr %9, align 8
  %40 = load i64, ptr %9, align 8
  %41 = load ptr, ptr %8, align 8
  %42 = getelementptr inbounds %struct.inflate_state, ptr %41, i32 0, i32 7
  %43 = load i64, ptr %42, align 8
  %44 = icmp ne i64 %40, %43
  br i1 %44, label %45, label %46

45:                                               ; preds = %34
  store i32 -3, ptr %4, align 4
  br label %63

46:                                               ; preds = %34
  br label %47

47:                                               ; preds = %46, %29
  %48 = load ptr, ptr %5, align 8
  %49 = load ptr, ptr %6, align 8
  %50 = load i32, ptr %7, align 4
  %51 = zext i32 %50 to i64
  %52 = getelementptr inbounds i8, ptr %49, i64 %51
  %53 = load i32, ptr %7, align 4
  %54 = call i32 @updatewindow(ptr noundef %48, ptr noundef %52, i32 noundef %53)
  store i32 %54, ptr %10, align 4
  %55 = load i32, ptr %10, align 4
  %56 = icmp ne i32 %55, 0
  br i1 %56, label %57, label %60

57:                                               ; preds = %47
  %58 = load ptr, ptr %8, align 8
  %59 = getelementptr inbounds %struct.inflate_state, ptr %58, i32 0, i32 1
  store i32 16210, ptr %59, align 8
  store i32 -4, ptr %4, align 4
  br label %63

60:                                               ; preds = %47
  %61 = load ptr, ptr %8, align 8
  %62 = getelementptr inbounds %struct.inflate_state, ptr %61, i32 0, i32 4
  store i32 1, ptr %62, align 4
  store i32 0, ptr %4, align 4
  br label %63

63:                                               ; preds = %60, %57, %45, %28, %14
  %64 = load i32, ptr %4, align 4
  ret i32 %64
}