; Function Attrs: nounwind uwtable
define dso_local range(i32 -4, 1) i32 @cm_zlib_inflateSetDictionary(ptr noundef readonly %0, ptr noundef %1, i32 noundef %2) local_unnamed_addr #1 {
  %4 = icmp eq ptr %0, null
  br i1 %4, label %inflateStateCheck.exit.thread, label %5

5:                                                ; preds = %3
  %6 = getelementptr inbounds nuw i8, ptr %0, i64 64
  %7 = load ptr, ptr %6, align 8
  %8 = icmp eq ptr %7, null
  br i1 %8, label %inflateStateCheck.exit.thread, label %9

9:                                                ; preds = %5
  %10 = getelementptr inbounds nuw i8, ptr %0, i64 72
  %11 = load ptr, ptr %10, align 8
  %12 = icmp eq ptr %11, null
  br i1 %12, label %inflateStateCheck.exit.thread, label %13

13:                                               ; preds = %9
  %14 = getelementptr inbounds nuw i8, ptr %0, i64 56
  %15 = load ptr, ptr %14, align 8
  %16 = icmp eq ptr %15, null
  br i1 %16, label %inflateStateCheck.exit.thread, label %17

17:                                               ; preds = %13
  %18 = load ptr, ptr %15, align 8
  %.not.i = icmp eq ptr %18, %0
  br i1 %.not.i, label %inflateStateCheck.exit, label %inflateStateCheck.exit.thread

inflateStateCheck.exit:                           ; preds = %17
  %19 = getelementptr inbounds nuw i8, ptr %15, i64 8
  %20 = load i32, ptr %19, align 8
  %21 = add i32 %20, -16180
  %or.cond.i = icmp ult i32 %21, 32
  br i1 %or.cond.i, label %22, label %inflateStateCheck.exit.thread

22:                                               ; preds = %inflateStateCheck.exit
  %23 = getelementptr inbounds nuw i8, ptr %15, i64 16
  %24 = load i32, ptr %23, align 8
  %.not17 = icmp eq i32 %24, 0
  %25 = icmp eq i32 %20, 16190
  br i1 %.not17, label %27, label %26

26:                                               ; preds = %22
  br i1 %25, label %.thread, label %inflateStateCheck.exit.thread

27:                                               ; preds = %22
  br i1 %25, label %.thread, label %32

.thread:                                          ; preds = %26, %27
  %28 = tail call i64 @cm_zlib_adler32(i64 noundef 0, ptr noundef null, i32 noundef 0) #9
  %29 = tail call i64 @cm_zlib_adler32(i64 noundef %28, ptr noundef %1, i32 noundef %2) #9
  %30 = getelementptr inbounds nuw i8, ptr %15, i64 32
  %31 = load i64, ptr %30, align 8
  %.not19 = icmp eq i64 %29, %31
  br i1 %.not19, label %._crit_edge, label %inflateStateCheck.exit.thread

._crit_edge:                                      ; preds = %.thread
  %.pre = load ptr, ptr %14, align 8
  br label %32

32:                                               ; preds = %._crit_edge, %27
  %33 = phi ptr [ %.pre, %._crit_edge ], [ %15, %27 ]
  %34 = zext i32 %2 to i64
  %35 = getelementptr inbounds nuw i8, ptr %1, i64 %34
  %36 = getelementptr inbounds nuw i8, ptr %33, i64 72
  %37 = load ptr, ptr %36, align 8
  %38 = icmp eq ptr %37, null
  br i1 %38, label %39, label %48

39:                                               ; preds = %32
  %40 = load ptr, ptr %6, align 8
  %41 = getelementptr inbounds nuw i8, ptr %0, i64 80
  %42 = load ptr, ptr %41, align 8
  %43 = getelementptr inbounds nuw i8, ptr %33, i64 56
  %44 = load i32, ptr %43, align 8
  %45 = shl nuw i32 1, %44
  %46 = tail call ptr %40(ptr noundef %42, i32 noundef %45, i32 noundef 1) #9
  store ptr %46, ptr %36, align 8
  %47 = icmp eq ptr %46, null
  br i1 %47, label %updatewindow.exit, label %48

48:                                               ; preds = %39, %32
  %49 = phi ptr [ %46, %39 ], [ %37, %32 ]
  %50 = getelementptr inbounds nuw i8, ptr %33, i64 60
  %51 = load i32, ptr %50, align 4
  %52 = icmp eq i32 %51, 0
  br i1 %52, label %53, label %59

53:                                               ; preds = %48
  %54 = getelementptr inbounds nuw i8, ptr %33, i64 56
  %55 = load i32, ptr %54, align 8
  %56 = shl nuw i32 1, %55
  store i32 %56, ptr %50, align 4
  %57 = getelementptr inbounds nuw i8, ptr %33, i64 68
  store i32 0, ptr %57, align 4
  %58 = getelementptr inbounds nuw i8, ptr %33, i64 64
  store i32 0, ptr %58, align 8
  br label %59

59:                                               ; preds = %53, %48
  %60 = phi i32 [ %56, %53 ], [ %51, %48 ]
  %.not.i21 = icmp ult i32 %2, %60
  br i1 %.not.i21, label %68, label %61

61:                                               ; preds = %59
  %62 = zext i32 %60 to i64
  %63 = sub nsw i64 0, %62
  %64 = getelementptr inbounds i8, ptr %35, i64 %63
  tail call void @llvm.memcpy.p0.p0.i64(ptr noundef nonnull align 1 dereferenceable(1) %49, ptr noundef nonnull readonly align 1 dereferenceable(1) %64, i64 %62, i1 false)
  %65 = getelementptr inbounds nuw i8, ptr %33, i64 68
  store i32 0, ptr %65, align 4
  %66 = load i32, ptr %50, align 4
  %67 = getelementptr inbounds nuw i8, ptr %33, i64 64
  store i32 %66, ptr %67, align 8
  br label %93

68:                                               ; preds = %59
  %69 = getelementptr inbounds nuw i8, ptr %33, i64 68
  %70 = load i32, ptr %69, align 4
  %71 = sub i32 %60, %70
  %spec.select.i22 = tail call i32 @llvm.umin.i32(i32 %71, i32 %2)
  %72 = zext i32 %70 to i64
  %73 = getelementptr inbounds nuw i8, ptr %49, i64 %72
  %74 = zext i32 %spec.select.i22 to i64
  tail call void @llvm.memcpy.p0.p0.i64(ptr nonnull align 1 %73, ptr readonly align 1 %1, i64 %74, i1 false)
  %.not57.not.i = icmp ugt i32 %2, %71
  br i1 %.not57.not.i, label %75, label %83

75:                                               ; preds = %68
  %76 = sub i32 %2, %spec.select.i22
  %77 = load ptr, ptr %36, align 8
  %78 = zext i32 %76 to i64
  %79 = sub nsw i64 0, %78
  %80 = getelementptr inbounds i8, ptr %35, i64 %79
  tail call void @llvm.memcpy.p0.p0.i64(ptr align 1 %77, ptr nonnull readonly align 1 %80, i64 %78, i1 false)
  store i32 %76, ptr %69, align 4
  %81 = load i32, ptr %50, align 4
  %82 = getelementptr inbounds nuw i8, ptr %33, i64 64
  store i32 %81, ptr %82, align 8
  br label %93

83:                                               ; preds = %68
  %84 = load i32, ptr %69, align 4
  %85 = add i32 %84, %spec.select.i22
  %86 = load i32, ptr %50, align 4
  %87 = icmp eq i32 %85, %86
  %spec.store.select.i = select i1 %87, i32 0, i32 %85
  store i32 %spec.store.select.i, ptr %69, align 4
  %88 = getelementptr inbounds nuw i8, ptr %33, i64 64
  %89 = load i32, ptr %88, align 8
  %90 = icmp ult i32 %89, %86
  br i1 %90, label %91, label %93

91:                                               ; preds = %83
  %92 = add i32 %89, %spec.select.i22
  store i32 %92, ptr %88, align 8
  br label %93

updatewindow.exit:                                ; preds = %39
  store i32 16210, ptr %19, align 8
  br label %inflateStateCheck.exit.thread

93:                                               ; preds = %75, %91, %83, %61
  %94 = getelementptr inbounds nuw i8, ptr %15, i64 20
  store i32 1, ptr %94, align 4
  br label %inflateStateCheck.exit.thread

inflateStateCheck.exit.thread:                    ; preds = %13, %17, %3, %5, %9, %.thread, %26, %inflateStateCheck.exit, %93, %updatewindow.exit
  %.0 = phi i32 [ -4, %updatewindow.exit ], [ 0, %93 ], [ -2, %inflateStateCheck.exit ], [ -2, %26 ], [ -3, %.thread ], [ -2, %9 ], [ -2, %5 ], [ -2, %3 ], [ -2, %17 ], [ -2, %13 ]
  ret i32 %.0
}